target datalayout = "e-m:e-p270:32:32-p271:32:32-p272:64:64-i64:64-i128:128-f80:128-n8:16:32:64-S128"
target triple = "x86_64-pc-linux-gnu"

%struct.OperationConfig = type { i8, ptr, ptr, ptr, ptr, ptr, ptr, i8, i8, i8, i64, i8, i8, i8, i8, i8, ptr, i8, ptr, i8, ptr, i64, ptr, %struct.dynbuf, ptr, ptr, i64, i64, i64, i64, ptr, ptr, ptr, ptr, i64, i64, i16, ptr, i64, i64, i64, i64, ptr, ptr, ptr, ptr, ptr, ptr, ptr, ptr, ptr, ptr, ptr, ptr, ptr, ptr, i32, ptr, ptr, ptr, ptr, i8, ptr, i8, i8, i8, i8, i8, i8, i8, i8, i8, i8, i8, i8, i8, i8, ptr, ptr, ptr, ptr, ptr, ptr, i64, ptr, ptr, ptr, ptr, ptr, ptr, ptr, ptr, ptr, ptr, ptr, ptr, ptr, ptr, ptr, ptr, ptr, ptr, ptr, ptr, ptr, ptr, ptr, ptr, ptr, ptr, ptr, ptr, ptr, ptr, i8, ptr, ptr, ptr, ptr, i64, i8, i8, i8, i8, i8, i8, i8, i8, i8, i8, i8, i8, i8, i8, i8, i8, i8, i8, i8, i8, ptr, ptr, ptr, ptr, i64, i64, i64, i64, i64, i32, i64, ptr, ptr, ptr, ptr, ptr, ptr, ptr, ptr, i32, i64, i64, i8, i8, i8, i8, i32, ptr, i8, i64, ptr, ptr, i8, i8, i64, i8, i8, i64, i64, ptr, ptr, i32, i64, i64, i8, i8, i8, i8, i8, i8, i8, i8, i64, i64, i8, i32, i8, i64, i8, i8, i8, i8, i8, i8, i8, i8, i8, ptr, i8, ptr, i8, i8, i8, i64, i8, i8, i8, i64, i8, ptr, i8, ptr, i32, i8, ptr, ptr, ptr, %struct.State, i8, i8, ptr, ptr, ptr }
%struct.dynbuf = type { ptr, i64, i64, i64 }
%struct.State = type { ptr, ptr, ptr, ptr, ptr, ptr, i64, i64, i64, i64 }

; Function Attrs: nounwind uwtable
define dso_local void @single_transfer_cleanup(ptr noundef %0) #0 {
  %2 = alloca ptr, align 8
  %3 = alloca ptr, align 8
  store ptr %0, ptr %2, align 8, !tbaa !4
  %4 = load ptr, ptr %2, align 8, !tbaa !4
  %5 = icmp ne ptr %4, null
  br i1 %5, label %6, label %29

6:                                                ; preds = %1
  call void @llvm.lifetime.start.p0(i64 8, ptr %3) #10
  %7 = load ptr, ptr %2, align 8, !tbaa !4
  %8 = getelementptr inbounds nuw %struct.OperationConfig, ptr %7, i32 0, i32 227
  store ptr %8, ptr %3, align 8, !tbaa !9
  %9 = load ptr, ptr %3, align 8, !tbaa !9
  %10 = getelementptr inbounds nuw %struct.State, ptr %9, i32 0, i32 2
  call void @glob_cleanup(ptr noundef %10)
  br label %11

11:                                               ; preds = %6
  %12 = load ptr, ptr %3, align 8, !tbaa !9
  %13 = getelementptr inbounds nuw %struct.State, ptr %12, i32 0, i32 3
  %14 = load ptr, ptr %13, align 8, !tbaa !11
  call void @free(ptr noundef %14) #10
  %15 = load ptr, ptr %3, align 8, !tbaa !9
  %16 = getelementptr inbounds nuw %struct.State, ptr %15, i32 0, i32 3
  store ptr null, ptr %16, align 8, !tbaa !11
  br label %17

17:                                               ; preds = %11
  br label %18

18:                                               ; preds = %17
  br label %19

19:                                               ; preds = %18
  %20 = load ptr, ptr %3, align 8, !tbaa !9
  %21 = getelementptr inbounds nuw %struct.State, ptr %20, i32 0, i32 5
  %22 = load ptr, ptr %21, align 8, !tbaa !17
  call void @free(ptr noundef %22) #10
  %23 = load ptr, ptr %3, align 8, !tbaa !9
  %24 = getelementptr inbounds nuw %struct.State, ptr %23, i32 0, i32 5
  store ptr null, ptr %24, align 8, !tbaa !17
  br label %25

25:                                               ; preds = %19
  br label %26

26:                                               ; preds = %25
  %27 = load ptr, ptr %3, align 8, !tbaa !9
  %28 = getelementptr inbounds nuw %struct.State, ptr %27, i32 0, i32 1
  call void @glob_cleanup(ptr noundef %28)
  call void @llvm.lifetime.end.p0(i64 8, ptr %3) #10
  br label %29

29:                                               ; preds = %26, %1
  ret void
}