; Function Attrs: nounwind uwtable
define dso_local void @single_transfer_cleanup(ptr noundef %0) local_unnamed_addr #0 {
  %.not = icmp eq ptr %0, null
  br i1 %.not, label %9, label %2

2:                                                ; preds = %1
  %3 = getelementptr inbounds nuw i8, ptr %0, i64 1368
  tail call void @glob_cleanup(ptr noundef nonnull %3) #16
  %4 = getelementptr inbounds nuw i8, ptr %0, i64 1376
  %5 = load ptr, ptr %4, align 8, !tbaa !4
  tail call void @free(ptr noundef %5) #16
  store ptr null, ptr %4, align 8, !tbaa !4
  %6 = getelementptr inbounds nuw i8, ptr %0, i64 1392
  %7 = load ptr, ptr %6, align 8, !tbaa !13
  tail call void @free(ptr noundef %7) #16
  store ptr null, ptr %6, align 8, !tbaa !13
  %8 = getelementptr inbounds nuw i8, ptr %0, i64 1360
  tail call void @glob_cleanup(ptr noundef nonnull %8) #16
  br label %9

9:                                                ; preds = %2, %1
  ret void
}